target datalayout = "e-m:e-p270:32:32-p271:32:32-p272:64:64-i64:64-i128:128-f80:128-n8:16:32:64-S128"
target triple = "x86_64-pc-linux-gnu"

%"class.vcg::math::MarsenneTwisterRNG" = type <{ %"class.vcg::math::RandomGenerator", [624 x i32], i32, [4 x i8] }>
%"class.vcg::math::RandomGenerator" = type { ptr }
%"class.vcg::Point3" = type { [3 x float] }

@__dso_handle = external hidden global i8
@_ZZ17RandomBaricentricvE3rnd = internal global %"class.vcg::math::MarsenneTwisterRNG" zeroinitializer, align 8
@_ZGVZ17RandomBaricentricvE3rnd = internal global i64 0, align 8

; Function Attrs: mustprogress nounwind uwtable
define linkonce_odr noundef nonnull align 4 dereferenceable(4) ptr @_ZN3vcg6Point3IfEixEi(ptr noundef nonnull align 4 dereferenceable(12) %0, i32 noundef %1) #4 comdat align 2 {
  %3 = alloca ptr, align 8
  %4 = alloca i32, align 4
  store ptr %0, ptr %3, align 8
  store i32 %1, ptr %4, align 4
  %5 = load ptr, ptr %3, align 8
  %6 = getelementptr inbounds %"class.vcg::Point3", ptr %5, i32 0, i32 0
  %7 = load i32, ptr %4, align 4
  %8 = sext i32 %7 to i64
  %9 = getelementptr inbounds [3 x float], ptr %6, i64 0, i64 %8
  ret ptr %9
}

; Function Attrs: mustprogress nounwind uwtable
define linkonce_odr noundef double @_ZN3vcg4math18MarsenneTwisterRNG10generate01Ev(ptr noundef nonnull align 8 dereferenceable(2508) %0) unnamed_addr #4 comdat align 2 {
  %2 = alloca ptr, align 8
  store ptr %0, ptr %2, align 8
  %3 = load ptr, ptr %2, align 8
  %4 = call noundef i32 @_ZN3vcg4math18MarsenneTwisterRNG8generateEv(ptr noundef nonnull align 8 dereferenceable(2508) %3)
  %5 = uitofp i32 %4 to double
  %6 = fmul double %5, 0x3DF0000000000000
  ret double %6
}

; Function Attrs: mustprogress nounwind uwtable
define linkonce_odr void @_ZN3vcg6Point3IfEC2Ev(ptr noundef nonnull align 4 dereferenceable(12) %0) unnamed_addr #4 comdat align 2 {
  %2 = alloca ptr, align 8
  store ptr %0, ptr %2, align 8
  ret void
}

; Function Attrs: mustprogress uwtable
define { <2 x float>, float } @_Z17RandomBaricentricv() #5 personality ptr @__gxx_personality_v0 {
  %1 = alloca %"class.vcg::Point3", align 4
  %2 = alloca ptr, align 8
  %3 = alloca i32, align 4
  %4 = alloca { <2 x float>, float }, align 8
  call void @_ZN3vcg6Point3IfEC2Ev(ptr noundef nonnull align 4 dereferenceable(12) %1)
  %5 = load atomic i8, ptr @_ZGVZ17RandomBaricentricvE3rnd acquire, align 8
  %6 = icmp eq i8 %5, 0
  br i1 %6, label %7, label %13, !prof !11

7:                                                ; preds = %0
  %8 = call i32 @__cxa_guard_acquire(ptr @_ZGVZ17RandomBaricentricvE3rnd) #3
  %9 = icmp ne i32 %8, 0
  br i1 %9, label %10, label %13

10:                                               ; preds = %7
  invoke void @_ZN3vcg4math18MarsenneTwisterRNGC2Ev(ptr noundef nonnull align 8 dereferenceable(2508) @_ZZ17RandomBaricentricvE3rnd)
          to label %11 unwind label %40

11:                                               ; preds = %10
  %12 = call i32 @__cxa_atexit(ptr @_ZN3vcg4math18MarsenneTwisterRNGD2Ev, ptr @_ZZ17RandomBaricentricvE3rnd, ptr @__dso_handle) #3
  call void @__cxa_guard_release(ptr @_ZGVZ17RandomBaricentricvE3rnd) #3
  br label %13

13:                                               ; preds = %11, %7, %0
  %14 = call noundef double @_ZN3vcg4math18MarsenneTwisterRNG10generate01Ev(ptr noundef nonnull align 8 dereferenceable(2508) @_ZZ17RandomBaricentricvE3rnd)
  %15 = fptrunc double %14 to float
  %16 = call noundef nonnull align 4 dereferenceable(4) ptr @_ZN3vcg6Point3IfEixEi(ptr noundef nonnull align 4 dereferenceable(12) %1, i32 noundef 1)
  store float %15, ptr %16, align 4
  %17 = call noundef double @_ZN3vcg4math18MarsenneTwisterRNG10generate01Ev(ptr noundef nonnull align 8 dereferenceable(2508) @_ZZ17RandomBaricentricvE3rnd)
  %18 = fptrunc double %17 to float
  %19 = call noundef nonnull align 4 dereferenceable(4) ptr @_ZN3vcg6Point3IfEixEi(ptr noundef nonnull align 4 dereferenceable(12) %1, i32 noundef 2)
  store float %18, ptr %19, align 4
  %20 = call noundef nonnull align 4 dereferenceable(4) ptr @_ZN3vcg6Point3IfEixEi(ptr noundef nonnull align 4 dereferenceable(12) %1, i32 noundef 1)
  %21 = load float, ptr %20, align 4
  %22 = call noundef nonnull align 4 dereferenceable(4) ptr @_ZN3vcg6Point3IfEixEi(ptr noundef nonnull align 4 dereferenceable(12) %1, i32 noundef 2)
  %23 = load float, ptr %22, align 4
  %24 = fadd float %21, %23
  %25 = fpext float %24 to double
  %26 = fcmp ogt double %25, 1.000000e+00
  br i1 %26, label %27, label %44

27:                                               ; preds = %13
  %28 = call noundef nonnull align 4 dereferenceable(4) ptr @_ZN3vcg6Point3IfEixEi(ptr noundef nonnull align 4 dereferenceable(12) %1, i32 noundef 1)
  %29 = load float, ptr %28, align 4
  %30 = fpext float %29 to double
  %31 = fsub double 1.000000e+00, %30
  %32 = fptrunc double %31 to float
  %33 = call noundef nonnull align 4 dereferenceable(4) ptr @_ZN3vcg6Point3IfEixEi(ptr noundef nonnull align 4 dereferenceable(12) %1, i32 noundef 1)
  store float %32, ptr %33, align 4
  %34 = call noundef nonnull align 4 dereferenceable(4) ptr @_ZN3vcg6Point3IfEixEi(ptr noundef nonnull align 4 dereferenceable(12) %1, i32 noundef 2)
  %35 = load float, ptr %34, align 4
  %36 = fpext float %35 to double
  %37 = fsub double 1.000000e+00, %36
  %38 = fptrunc double %37 to float
  %39 = call noundef nonnull align 4 dereferenceable(4) ptr @_ZN3vcg6Point3IfEixEi(ptr noundef nonnull align 4 dereferenceable(12) %1, i32 noundef 2)
  store float %38, ptr %39, align 4
  br label %44

40:                                               ; preds = %10
  %41 = landingpad { ptr, i32 }
          cleanup
  %42 = extractvalue { ptr, i32 } %41, 0
  store ptr %42, ptr %2, align 8
  %43 = extractvalue { ptr, i32 } %41, 1
  store i32 %43, ptr %3, align 4
  call void @__cxa_guard_abort(ptr @_ZGVZ17RandomBaricentricvE3rnd) #3
  br label %56

44:                                               ; preds = %27, %13
  %45 = call noundef nonnull align 4 dereferenceable(4) ptr @_ZN3vcg6Point3IfEixEi(ptr noundef nonnull align 4 dereferenceable(12) %1, i32 noundef 1)
  %46 = load float, ptr %45, align 4
  %47 = call noundef nonnull align 4 dereferenceable(4) ptr @_ZN3vcg6Point3IfEixEi(ptr noundef nonnull align 4 dereferenceable(12) %1, i32 noundef 2)
  %48 = load float, ptr %47, align 4
  %49 = fadd float %46, %48
  %50 = fpext float %49 to double
  %51 = fsub double 1.000000e+00, %50
  %52 = fptrunc double %51 to float
  %53 = call noundef nonnull align 4 dereferenceable(4) ptr @_ZN3vcg6Point3IfEixEi(ptr noundef nonnull align 4 dereferenceable(12) %1, i32 noundef 0)
  store float %52, ptr %53, align 4
  %54 = getelementptr inbounds %"class.vcg::Point3", ptr %1, i32 0, i32 0
  call void @llvm.memcpy.p0.p0.i64(ptr align 8 %4, ptr align 4 %54, i64 12, i1 false)
  %55 = load { <2 x float>, float }, ptr %4, align 8
  ret { <2 x float>, float } %55

56:                                               ; preds = %40
  %57 = load ptr, ptr %2, align 8
  %58 = load i32, ptr %3, align 4
  %59 = insertvalue { ptr, i32 } poison, ptr %57, 0
  %60 = insertvalue { ptr, i32 } %59, i32 %58, 1
  resume { ptr, i32 } %60
}