; Function Attrs: mustprogress uwtable
define { <2 x float>, float } @_Z17RandomBaricentricv() local_unnamed_addr #9 personality ptr @__gxx_personality_v0 {
  %1 = load atomic i8, ptr @_ZGVZ17RandomBaricentricvE3rnd acquire, align 8
  %2 = icmp eq i8 %1, 0
  br i1 %2, label %3, label %7, !prof !10

3:                                                ; preds = %0
  %4 = tail call i32 @__cxa_guard_acquire(ptr nonnull @_ZGVZ17RandomBaricentricvE3rnd) #27
  %.not = icmp eq i32 %4, 0
  br i1 %.not, label %7, label %5

5:                                                ; preds = %3
  invoke void @_ZN3vcg4math18MarsenneTwisterRNGC2Ev(ptr noundef nonnull align 8 dereferenceable(2508) @_ZZ17RandomBaricentricvE3rnd)
          to label %6 unwind label %22

6:                                                ; preds = %5
  tail call void @__cxa_guard_release(ptr nonnull @_ZGVZ17RandomBaricentricvE3rnd) #27
  br label %7

7:                                                ; preds = %6, %3, %0
  %8 = tail call noundef i32 @_ZN3vcg4math18MarsenneTwisterRNG8generateEv(ptr noundef nonnull align 8 dereferenceable(2508) @_ZZ17RandomBaricentricvE3rnd)
  %9 = uitofp i32 %8 to double
  %10 = fmul double %9, 0x3DF0000000000000
  %11 = fptrunc double %10 to float
  %.sroa.0.4.vec.insert = insertelement <2 x float> <float undef, float poison>, float %11, i64 1
  %12 = tail call noundef i32 @_ZN3vcg4math18MarsenneTwisterRNG8generateEv(ptr noundef nonnull align 8 dereferenceable(2508) @_ZZ17RandomBaricentricvE3rnd)
  %13 = uitofp i32 %12 to double
  %14 = fmul double %13, 0x3DF0000000000000
  %15 = fptrunc double %14 to float
  %16 = fadd float %11, %15
  %17 = fcmp ogt float %16, 1.000000e+00
  %18 = fsub float 1.000000e+00, %11
  %.sroa.0.4.vec.insert6 = insertelement <2 x float> %.sroa.0.4.vec.insert, float %18, i64 1
  %19 = fsub float 1.000000e+00, %15
  %.sroa.7.0 = select i1 %17, float %19, float %15
  %.sroa.0.0 = select i1 %17, <2 x float> %.sroa.0.4.vec.insert6, <2 x float> %.sroa.0.4.vec.insert
  %.sroa.0.4.vec.extract8 = extractelement <2 x float> %.sroa.0.0, i64 1
  %20 = fadd float %.sroa.7.0, %.sroa.0.4.vec.extract8
  %21 = fsub float 1.000000e+00, %20
  %.sroa.0.0.vec.insert = insertelement <2 x float> %.sroa.0.0, float %21, i64 0
  %.fca.0.insert = insertvalue { <2 x float>, float } poison, <2 x float> %.sroa.0.0.vec.insert, 0
  %.fca.1.insert = insertvalue { <2 x float>, float } %.fca.0.insert, float %.sroa.7.0, 1
  ret { <2 x float>, float } %.fca.1.insert

22:                                               ; preds = %5
  %23 = landingpad { ptr, i32 }
          cleanup
  tail call void @__cxa_guard_abort(ptr nonnull @_ZGVZ17RandomBaricentricvE3rnd) #27
  resume { ptr, i32 } %23
}